; Function Attrs: mustprogress uwtable
define hidden void @_ZNK8facebook6hermes7tracing10SynthTrace24CreateHostFunctionRecord14toJSONInternalERN6hermes11JSONEmitterE(ptr noundef nonnull align 8 dereferenceable(32) %this, ptr noundef nonnull align 8 dereferenceable(72) %json) unnamed_addr #1 align 2 {
entry:
  tail call void @_ZNK8facebook6hermes7tracing10SynthTrace6Record14toJSONInternalERN6hermes11JSONEmitterE(ptr noundef nonnull align 8 dereferenceable(16) %this, ptr noundef nonnull align 8 dereferenceable(72) %json)
  %objID_.i = getelementptr inbounds i8, ptr %this, i64 16
  tail call void @_ZN6hermes11JSONEmitter7emitKeyEN4llvh9StringRefE(ptr noundef nonnull align 8 dereferenceable(72) %json, ptr nonnull @.str.53, i64 5)
  %0 = load i64, ptr %objID_.i, align 8
  tail call void @_ZN6hermes11JSONEmitter9emitValueEm(ptr noundef nonnull align 8 dereferenceable(72) %json, i64 noundef %0)
  %propNameID_ = getelementptr inbounds i8, ptr %this, i64 24
  tail call void @_ZN6hermes11JSONEmitter7emitKeyEN4llvh9StringRefE(ptr noundef nonnull align 8 dereferenceable(72) %json, ptr nonnull @.str.47, i64 10)
  %1 = load i32, ptr %propNameID_, align 8
  tail call void @_ZN6hermes11JSONEmitter9emitValueEj(ptr noundef nonnull align 8 dereferenceable(72) %json, i32 noundef %1)
  %paramCount_ = getelementptr inbounds i8, ptr %this, i64 28
  tail call void @_ZN6hermes11JSONEmitter7emitKeyEN4llvh9StringRefE(ptr noundef nonnull align 8 dereferenceable(72) %json, ptr nonnull @.str.62, i64 14)
  %2 = load i32, ptr %paramCount_, align 4
  tail call void @_ZN6hermes11JSONEmitter9emitValueEj(ptr noundef nonnull align 8 dereferenceable(72) %json, i32 noundef %2)
  ret void
}